target datalayout = "e-m:e-p270:32:32-p271:32:32-p272:64:64-i64:64-i128:128-f80:128-n8:16:32:64-S128"
target triple = "x86_64-pc-linux-gnu"

%struct.nstime_t = type { i64, i32 }
%struct._address = type { i32, i32, ptr, ptr }
%struct.tcp_analysis = type { %struct._tcp_flow_t, %struct._tcp_flow_t, ptr, ptr, ptr, ptr, %struct.nstime_t, %struct.nstime_t, %struct.nstime_t, %struct.nstime_t, i32, i16, i8, ptr, i8, ptr, i32, i32, i32 }
%struct._tcp_flow_t = type { i8, i32, i32, i32, i16, i16, i16, i32, i32, i32, i8, i32, i32, ptr, i16, i32, i32, ptr, ptr, ptr, ptr }
%struct.mptcp_subflow = type { i8, i32, i8, ptr, ptr, ptr }
%struct._mptcp_meta_flow_t = type { i8, i8, i64, i64, i64, i8, i64, i32, i32, i64, i64, %struct._address, %struct._address, i32, i32 }

@.str.4 = private unnamed_addr constant [29 x i8] c"%s:%u: failed assertion \22%s\22\00", align 1
@.str.5 = private unnamed_addr constant [29 x i8] c"epan/dissectors/packet-tcp.c\00", align 1
@.str.1071 = private unnamed_addr constant [25 x i8] c"fwd->mptcp_subflow->meta\00", align 1

; Function Attrs: nounwind uwtable
define internal void @mptcp_cryptodata_sha256(i64 noundef %0, ptr noundef %1, ptr noundef %2) #0 {
  %4 = alloca i64, align 8
  %5 = alloca ptr, align 8
  %6 = alloca ptr, align 8
  %7 = alloca [32 x i8], align 16
  %8 = alloca i64, align 8
  %9 = alloca i32, align 4
  %10 = alloca i64, align 8
  store i64 %0, ptr %4, align 8
  store ptr %1, ptr %5, align 8
  store ptr %2, ptr %6, align 8
  %11 = load i64, ptr %4, align 8
  %12 = and i64 %11, 255
  %13 = shl i64 %12, 56
  %14 = load i64, ptr %4, align 8
  %15 = and i64 %14, 65280
  %16 = shl i64 %15, 40
  %17 = or i64 %13, %16
  %18 = load i64, ptr %4, align 8
  %19 = and i64 %18, 16711680
  %20 = shl i64 %19, 24
  %21 = or i64 %17, %20
  %22 = load i64, ptr %4, align 8
  %23 = and i64 %22, 4278190080
  %24 = shl i64 %23, 8
  %25 = or i64 %21, %24
  %26 = load i64, ptr %4, align 8
  %27 = and i64 %26, 1095216660480
  %28 = lshr i64 %27, 8
  %29 = or i64 %25, %28
  %30 = load i64, ptr %4, align 8
  %31 = and i64 %30, 280375465082880
  %32 = lshr i64 %31, 24
  %33 = or i64 %29, %32
  %34 = load i64, ptr %4, align 8
  %35 = and i64 %34, 71776119061217280
  %36 = lshr i64 %35, 40
  %37 = or i64 %33, %36
  %38 = load i64, ptr %4, align 8
  %39 = and i64 %38, -72057594037927936
  %40 = lshr i64 %39, 56
  %41 = or i64 %37, %40
  store i64 %41, ptr %8, align 8
  %42 = getelementptr inbounds [32 x i8], ptr %7, i64 0, i64 0
  call void @gcry_md_hash_buffer(i32 noundef 8, ptr noundef %42, ptr noundef %8, i64 noundef 8)
  %43 = getelementptr inbounds [32 x i8], ptr %7, i64 0, i64 0
  call void @llvm.memcpy.p0.p0.i64(ptr align 4 %9, ptr align 16 %43, i64 4, i1 false)
  %44 = load i32, ptr %9, align 4
  %45 = and i32 %44, 255
  %46 = shl i32 %45, 24
  %47 = load i32, ptr %9, align 4
  %48 = and i32 %47, 65280
  %49 = shl i32 %48, 8
  %50 = or i32 %46, %49
  %51 = load i32, ptr %9, align 4
  %52 = and i32 %51, 16711680
  %53 = lshr i32 %52, 8
  %54 = or i32 %50, %53
  %55 = load i32, ptr %9, align 4
  %56 = and i32 %55, -16777216
  %57 = lshr i32 %56, 24
  %58 = or i32 %54, %57
  %59 = load ptr, ptr %5, align 8
  store i32 %58, ptr %59, align 4
  %60 = getelementptr inbounds [32 x i8], ptr %7, i64 0, i64 0
  %61 = getelementptr i8, ptr %60, i64 32
  %62 = getelementptr i8, ptr %61, i64 -8
  call void @llvm.memcpy.p0.p0.i64(ptr align 8 %10, ptr align 1 %62, i64 8, i1 false)
  %63 = load i64, ptr %10, align 8
  %64 = and i64 %63, 255
  %65 = shl i64 %64, 56
  %66 = load i64, ptr %10, align 8
  %67 = and i64 %66, 65280
  %68 = shl i64 %67, 40
  %69 = or i64 %65, %68
  %70 = load i64, ptr %10, align 8
  %71 = and i64 %70, 16711680
  %72 = shl i64 %71, 24
  %73 = or i64 %69, %72
  %74 = load i64, ptr %10, align 8
  %75 = and i64 %74, 4278190080
  %76 = shl i64 %75, 8
  %77 = or i64 %73, %76
  %78 = load i64, ptr %10, align 8
  %79 = and i64 %78, 1095216660480
  %80 = lshr i64 %79, 8
  %81 = or i64 %77, %80
  %82 = load i64, ptr %10, align 8
  %83 = and i64 %82, 280375465082880
  %84 = lshr i64 %83, 24
  %85 = or i64 %81, %84
  %86 = load i64, ptr %10, align 8
  %87 = and i64 %86, 71776119061217280
  %88 = lshr i64 %87, 40
  %89 = or i64 %85, %88
  %90 = load i64, ptr %10, align 8
  %91 = and i64 %90, -72057594037927936
  %92 = lshr i64 %91, 56
  %93 = or i64 %89, %92
  %94 = load ptr, ptr %6, align 8
  store i64 %93, ptr %94, align 8
  ret void
}

; Function Attrs: nounwind uwtable
define internal void @mptcp_cryptodata_sha1(i64 noundef %0, ptr noundef %1, ptr noundef %2) #0 {
  %4 = alloca i64, align 8
  %5 = alloca ptr, align 8
  %6 = alloca ptr, align 8
  %7 = alloca [20 x i8], align 16
  %8 = alloca i64, align 8
  %9 = alloca i32, align 4
  %10 = alloca i64, align 8
  store i64 %0, ptr %4, align 8
  store ptr %1, ptr %5, align 8
  store ptr %2, ptr %6, align 8
  %11 = load i64, ptr %4, align 8
  %12 = and i64 %11, 255
  %13 = shl i64 %12, 56
  %14 = load i64, ptr %4, align 8
  %15 = and i64 %14, 65280
  %16 = shl i64 %15, 40
  %17 = or i64 %13, %16
  %18 = load i64, ptr %4, align 8
  %19 = and i64 %18, 16711680
  %20 = shl i64 %19, 24
  %21 = or i64 %17, %20
  %22 = load i64, ptr %4, align 8
  %23 = and i64 %22, 4278190080
  %24 = shl i64 %23, 8
  %25 = or i64 %21, %24
  %26 = load i64, ptr %4, align 8
  %27 = and i64 %26, 1095216660480
  %28 = lshr i64 %27, 8
  %29 = or i64 %25, %28
  %30 = load i64, ptr %4, align 8
  %31 = and i64 %30, 280375465082880
  %32 = lshr i64 %31, 24
  %33 = or i64 %29, %32
  %34 = load i64, ptr %4, align 8
  %35 = and i64 %34, 71776119061217280
  %36 = lshr i64 %35, 40
  %37 = or i64 %33, %36
  %38 = load i64, ptr %4, align 8
  %39 = and i64 %38, -72057594037927936
  %40 = lshr i64 %39, 56
  %41 = or i64 %37, %40
  store i64 %41, ptr %8, align 8
  %42 = getelementptr inbounds [20 x i8], ptr %7, i64 0, i64 0
  call void @gcry_md_hash_buffer(i32 noundef 2, ptr noundef %42, ptr noundef %8, i64 noundef 8)
  %43 = getelementptr inbounds [20 x i8], ptr %7, i64 0, i64 0
  call void @llvm.memcpy.p0.p0.i64(ptr align 4 %9, ptr align 16 %43, i64 4, i1 false)
  %44 = load i32, ptr %9, align 4
  %45 = and i32 %44, 255
  %46 = shl i32 %45, 24
  %47 = load i32, ptr %9, align 4
  %48 = and i32 %47, 65280
  %49 = shl i32 %48, 8
  %50 = or i32 %46, %49
  %51 = load i32, ptr %9, align 4
  %52 = and i32 %51, 16711680
  %53 = lshr i32 %52, 8
  %54 = or i32 %50, %53
  %55 = load i32, ptr %9, align 4
  %56 = and i32 %55, -16777216
  %57 = lshr i32 %56, 24
  %58 = or i32 %54, %57
  %59 = load ptr, ptr %5, align 8
  store i32 %58, ptr %59, align 4
  %60 = getelementptr inbounds [20 x i8], ptr %7, i64 0, i64 0
  %61 = getelementptr i8, ptr %60, i64 20
  %62 = getelementptr i8, ptr %61, i64 -8
  call void @llvm.memcpy.p0.p0.i64(ptr align 8 %10, ptr align 1 %62, i64 8, i1 false)
  %63 = load i64, ptr %10, align 8
  %64 = and i64 %63, 255
  %65 = shl i64 %64, 56
  %66 = load i64, ptr %10, align 8
  %67 = and i64 %66, 65280
  %68 = shl i64 %67, 40
  %69 = or i64 %65, %68
  %70 = load i64, ptr %10, align 8
  %71 = and i64 %70, 16711680
  %72 = shl i64 %71, 24
  %73 = or i64 %69, %72
  %74 = load i64, ptr %10, align 8
  %75 = and i64 %74, 4278190080
  %76 = shl i64 %75, 8
  %77 = or i64 %73, %76
  %78 = load i64, ptr %10, align 8
  %79 = and i64 %78, 1095216660480
  %80 = lshr i64 %79, 8
  %81 = or i64 %77, %80
  %82 = load i64, ptr %10, align 8
  %83 = and i64 %82, 280375465082880
  %84 = lshr i64 %83, 24
  %85 = or i64 %81, %84
  %86 = load i64, ptr %10, align 8
  %87 = and i64 %86, 71776119061217280
  %88 = lshr i64 %87, 40
  %89 = or i64 %85, %88
  %90 = load i64, ptr %10, align 8
  %91 = and i64 %90, -72057594037927936
  %92 = lshr i64 %91, 56
  %93 = or i64 %89, %92
  %94 = load ptr, ptr %6, align 8
  store i64 %93, ptr %94, align 8
  ret void
}

; Function Attrs: nounwind uwtable
define internal ptr @get_or_create_mptcpd_from_key(ptr noundef %0, ptr noundef %1, i8 noundef zeroext %2, i64 noundef %3, i8 noundef zeroext %4) #0 {
  %6 = alloca ptr, align 8
  %7 = alloca ptr, align 8
  %8 = alloca ptr, align 8
  %9 = alloca i8, align 1
  %10 = alloca i64, align 8
  %11 = alloca i8, align 1
  %12 = alloca i32, align 4
  %13 = alloca i64, align 8
  %14 = alloca ptr, align 8
  store ptr %0, ptr %7, align 8
  store ptr %1, ptr %8, align 8
  store i8 %2, ptr %9, align 1
  store i64 %3, ptr %10, align 8
  store i8 %4, ptr %11, align 1
  store i32 0, ptr %12, align 4
  store i64 0, ptr %13, align 8
  %15 = load ptr, ptr %7, align 8
  %16 = getelementptr inbounds %struct.tcp_analysis, ptr %15, i32 0, i32 13
  %17 = load ptr, ptr %16, align 8
  store ptr %17, ptr %14, align 8
  %18 = load ptr, ptr %8, align 8
  %19 = getelementptr inbounds %struct._tcp_flow_t, ptr %18, i32 0, i32 20
  %20 = load ptr, ptr %19, align 8
  %21 = getelementptr inbounds %struct.mptcp_subflow, ptr %20, i32 0, i32 5
  %22 = load ptr, ptr %21, align 8
  %23 = icmp ne ptr %22, null
  br i1 %23, label %24, label %37

24:                                               ; preds = %5
  %25 = load ptr, ptr %8, align 8
  %26 = getelementptr inbounds %struct._tcp_flow_t, ptr %25, i32 0, i32 20
  %27 = load ptr, ptr %26, align 8
  %28 = getelementptr inbounds %struct.mptcp_subflow, ptr %27, i32 0, i32 5
  %29 = load ptr, ptr %28, align 8
  %30 = getelementptr inbounds %struct._mptcp_meta_flow_t, ptr %29, i32 0, i32 0
  %31 = load i8, ptr %30, align 8
  %32 = zext i8 %31 to i32
  %33 = and i32 %32, 3
  %34 = icmp ne i32 %33, 0
  br i1 %34, label %35, label %37

35:                                               ; preds = %24
  %36 = load ptr, ptr %14, align 8
  store ptr %36, ptr %6, align 8
  br label %97

37:                                               ; preds = %24, %5
  %38 = load i8, ptr %9, align 1
  %39 = zext i8 %38 to i32
  %40 = icmp eq i32 %39, 0
  br i1 %40, label %41, label %43

41:                                               ; preds = %37
  %42 = load i64, ptr %10, align 8
  call void @mptcp_cryptodata_sha1(i64 noundef %42, ptr noundef %12, ptr noundef %13)
  br label %50

43:                                               ; preds = %37
  %44 = load i8, ptr %9, align 1
  %45 = zext i8 %44 to i32
  %46 = icmp eq i32 %45, 1
  br i1 %46, label %47, label %49

47:                                               ; preds = %43
  %48 = load i64, ptr %10, align 8
  call void @mptcp_cryptodata_sha256(i64 noundef %48, ptr noundef %12, ptr noundef %13)
  br label %49

49:                                               ; preds = %47, %43
  br label %50

50:                                               ; preds = %49, %41
  %51 = load ptr, ptr %7, align 8
  %52 = load ptr, ptr %8, align 8
  %53 = load i32, ptr %12, align 4
  %54 = call ptr @mptcp_get_meta_from_token(ptr noundef %51, ptr noundef %52, i32 noundef %53)
  store ptr %54, ptr %14, align 8
  %55 = load ptr, ptr %8, align 8
  %56 = getelementptr inbounds %struct._tcp_flow_t, ptr %55, i32 0, i32 20
  %57 = load ptr, ptr %56, align 8
  %58 = getelementptr inbounds %struct.mptcp_subflow, ptr %57, i32 0, i32 5
  %59 = load ptr, ptr %58, align 8
  %60 = icmp ne ptr %59, null
  br i1 %60, label %61, label %62

61:                                               ; preds = %50
  br label %64

62:                                               ; preds = %50
  call void (ptr, ...) @proto_report_dissector_bug(ptr noundef @.str.4, ptr noundef @.str.5, i32 noundef 5973, ptr noundef @.str.1071) #12
  unreachable

63:                                               ; No predecessors!
  br label %64

64:                                               ; preds = %63, %61
  %65 = load i8, ptr %9, align 1
  %66 = load ptr, ptr %8, align 8
  %67 = getelementptr inbounds %struct._tcp_flow_t, ptr %66, i32 0, i32 20
  %68 = load ptr, ptr %67, align 8
  %69 = getelementptr inbounds %struct.mptcp_subflow, ptr %68, i32 0, i32 5
  %70 = load ptr, ptr %69, align 8
  %71 = getelementptr inbounds %struct._mptcp_meta_flow_t, ptr %70, i32 0, i32 5
  store i8 %65, ptr %71, align 8
  %72 = load i64, ptr %10, align 8
  %73 = load ptr, ptr %8, align 8
  %74 = getelementptr inbounds %struct._tcp_flow_t, ptr %73, i32 0, i32 20
  %75 = load ptr, ptr %74, align 8
  %76 = getelementptr inbounds %struct.mptcp_subflow, ptr %75, i32 0, i32 5
  %77 = load ptr, ptr %76, align 8
  %78 = getelementptr inbounds %struct._mptcp_meta_flow_t, ptr %77, i32 0, i32 6
  store i64 %72, ptr %78, align 8
  %79 = load ptr, ptr %8, align 8
  %80 = getelementptr inbounds %struct._tcp_flow_t, ptr %79, i32 0, i32 20
  %81 = load ptr, ptr %80, align 8
  %82 = getelementptr inbounds %struct.mptcp_subflow, ptr %81, i32 0, i32 5
  %83 = load ptr, ptr %82, align 8
  %84 = getelementptr inbounds %struct._mptcp_meta_flow_t, ptr %83, i32 0, i32 0
  %85 = load i8, ptr %84, align 8
  %86 = zext i8 %85 to i32
  %87 = or i32 %86, 3
  %88 = trunc i32 %87 to i8
  store i8 %88, ptr %84, align 8
  %89 = load i64, ptr %13, align 8
  %90 = load ptr, ptr %8, align 8
  %91 = getelementptr inbounds %struct._tcp_flow_t, ptr %90, i32 0, i32 20
  %92 = load ptr, ptr %91, align 8
  %93 = getelementptr inbounds %struct.mptcp_subflow, ptr %92, i32 0, i32 5
  %94 = load ptr, ptr %93, align 8
  %95 = getelementptr inbounds %struct._mptcp_meta_flow_t, ptr %94, i32 0, i32 2
  store i64 %89, ptr %95, align 8
  %96 = load ptr, ptr %14, align 8
  store ptr %96, ptr %6, align 8
  br label %97

97:                                               ; preds = %64, %35
  %98 = load ptr, ptr %6, align 8
  ret ptr %98
}