; Function Attrs: nounwind uwtable
define internal fastcc ptr @get_or_create_mptcpd_from_key(ptr noundef %0, ptr noundef %1, i8 noundef zeroext %2, i64 noundef %3) unnamed_addr #0 {
  %5 = alloca [32 x i8], align 16
  %6 = alloca i64, align 8
  %7 = alloca [20 x i8], align 16
  %8 = alloca i64, align 8
  %9 = getelementptr inbounds nuw i8, ptr %1, i64 96
  %10 = load ptr, ptr %9, align 8
  %11 = getelementptr inbounds nuw i8, ptr %10, i64 32
  %12 = load ptr, ptr %11, align 8
  %.not = icmp eq ptr %12, null
  br i1 %.not, label %18, label %13

13:                                               ; preds = %4
  %14 = getelementptr inbounds nuw i8, ptr %0, i64 312
  %15 = load ptr, ptr %14, align 8
  %16 = load i8, ptr %12, align 8
  %17 = and i8 %16, 3
  %.not21 = icmp eq i8 %17, 0
  br i1 %.not21, label %18, label %50

18:                                               ; preds = %13, %4
  switch i8 %2, label %29 [
    i8 0, label %19
    i8 1, label %24
  ]

19:                                               ; preds = %18
  call void @llvm.lifetime.start.p0(i64 20, ptr nonnull %7)
  call void @llvm.lifetime.start.p0(i64 8, ptr nonnull %8)
  %20 = tail call i64 @llvm.bswap.i64(i64 %3)
  store i64 %20, ptr %8, align 8
  call void @gcry_md_hash_buffer(i32 noundef 2, ptr noundef nonnull %7, ptr noundef nonnull %8, i64 noundef 8) #20
  %.0.copyload8.i = load i32, ptr %7, align 16
  %21 = call i32 @llvm.bswap.i32(i32 %.0.copyload8.i)
  %22 = getelementptr inbounds nuw i8, ptr %7, i64 12
  %.0.copyload.i = load i64, ptr %22, align 4
  %23 = call i64 @llvm.bswap.i64(i64 %.0.copyload.i)
  call void @llvm.lifetime.end.p0(i64 20, ptr nonnull %7)
  call void @llvm.lifetime.end.p0(i64 8, ptr nonnull %8)
  br label %29

24:                                               ; preds = %18
  call void @llvm.lifetime.start.p0(i64 32, ptr nonnull %5)
  call void @llvm.lifetime.start.p0(i64 8, ptr nonnull %6)
  %25 = tail call i64 @llvm.bswap.i64(i64 %3)
  store i64 %25, ptr %6, align 8
  call void @gcry_md_hash_buffer(i32 noundef 8, ptr noundef nonnull %5, ptr noundef nonnull %6, i64 noundef 8) #20
  %.0.copyload8.i23 = load i32, ptr %5, align 16
  %26 = call i32 @llvm.bswap.i32(i32 %.0.copyload8.i23)
  %27 = getelementptr inbounds nuw i8, ptr %5, i64 24
  %.0.copyload.i24 = load i64, ptr %27, align 8
  %28 = call i64 @llvm.bswap.i64(i64 %.0.copyload.i24)
  call void @llvm.lifetime.end.p0(i64 32, ptr nonnull %5)
  call void @llvm.lifetime.end.p0(i64 8, ptr nonnull %6)
  br label %29

29:                                               ; preds = %18, %24, %19
  %.027 = phi i32 [ 0, %18 ], [ %26, %24 ], [ %21, %19 ]
  %.026 = phi i64 [ 0, %18 ], [ %28, %24 ], [ %23, %19 ]
  %30 = call fastcc ptr @mptcp_get_meta_from_token(ptr noundef nonnull %0, ptr noundef nonnull %1, i32 noundef %.027)
  %31 = load ptr, ptr %9, align 8
  %32 = getelementptr inbounds nuw i8, ptr %31, i64 32
  %33 = load ptr, ptr %32, align 8
  %.not22 = icmp eq ptr %33, null
  br i1 %.not22, label %34, label %35

34:                                               ; preds = %29
  call void (ptr, ...) @proto_report_dissector_bug(ptr noundef nonnull @.str.4, ptr noundef nonnull @.str.5, i32 noundef 5973, ptr noundef nonnull @.str.1071) #22
  unreachable

35:                                               ; preds = %29
  %36 = getelementptr inbounds nuw i8, ptr %33, i64 32
  store i8 %2, ptr %36, align 8
  %37 = load ptr, ptr %9, align 8
  %38 = getelementptr inbounds nuw i8, ptr %37, i64 32
  %39 = load ptr, ptr %38, align 8
  %40 = getelementptr inbounds nuw i8, ptr %39, i64 40
  store i64 %3, ptr %40, align 8
  %41 = load ptr, ptr %9, align 8
  %42 = getelementptr inbounds nuw i8, ptr %41, i64 32
  %43 = load ptr, ptr %42, align 8
  %44 = load i8, ptr %43, align 8
  %45 = or i8 %44, 3
  store i8 %45, ptr %43, align 8
  %46 = load ptr, ptr %9, align 8
  %47 = getelementptr inbounds nuw i8, ptr %46, i64 32
  %48 = load ptr, ptr %47, align 8
  %49 = getelementptr inbounds nuw i8, ptr %48, i64 8
  store i64 %.026, ptr %49, align 8
  br label %50

50:                                               ; preds = %13, %35
  %.0 = phi ptr [ %30, %35 ], [ %15, %13 ]
  ret ptr %.0
}